target datalayout = "e-m:e-p270:32:32-p271:32:32-p272:64:64-i64:64-i128:128-f80:128-n8:16:32:64-S128"
target triple = "x86_64-pc-linux-gnu"

%struct._zend_array = type { %struct._zend_refcounted_h, %union.anon.4, i32, %union.anon.6, i32, i32, i32, i32, i64, ptr }
%struct._zend_refcounted_h = type { i32, %union.anon.3 }
%union.anon.3 = type { i32 }
%union.anon.4 = type { i32 }
%union.anon.6 = type { ptr }
%struct._zval_struct = type { %union._zend_value, %union.anon, %union.anon.2 }
%union._zend_value = type { i64 }
%union.anon = type { i32 }
%union.anon.2 = type { i32 }
%struct._zend_attribute = type { ptr, ptr, i32, i32, i32, i32, [1 x %struct.zend_attribute_arg] }
%struct.zend_attribute_arg = type { ptr, %struct._zval_struct }
%struct._zend_string = type { %struct._zend_refcounted_h, i64, i64, [1 x i8] }

; Function Attrs: nounwind uwtable
define internal ptr @get_attribute(ptr noundef %0, ptr noundef %1, i32 noundef %2) #0 {
  %4 = alloca ptr, align 8
  %5 = alloca ptr, align 8
  %6 = alloca ptr, align 8
  %7 = alloca ptr, align 8
  %8 = alloca ptr, align 8
  %9 = alloca ptr, align 8
  %10 = alloca ptr, align 8
  %11 = alloca ptr, align 8
  %12 = alloca i32, align 4
  %13 = alloca ptr, align 8
  %14 = alloca ptr, align 8
  %15 = alloca i64, align 8
  %16 = alloca ptr, align 8
  %17 = alloca ptr, align 8
  store ptr %0, ptr %10, align 8
  store ptr %1, ptr %11, align 8
  store i32 %2, ptr %12, align 4
  %18 = load ptr, ptr %10, align 8
  %19 = icmp ne ptr %18, null
  br i1 %19, label %20, label %102

20:                                               ; preds = %3
  br label %21

21:                                               ; preds = %20
  %22 = load ptr, ptr %10, align 8
  store ptr %22, ptr %14, align 8
  store i64 0, ptr %15, align 8
  %23 = load ptr, ptr %14, align 8
  %24 = getelementptr inbounds %struct._zend_array, ptr %23, i32 0, i32 3
  %25 = load ptr, ptr %24, align 8
  %26 = getelementptr inbounds %struct._zval_struct, ptr %25, i64 0
  store ptr %26, ptr %16, align 8
  %27 = load ptr, ptr %14, align 8
  %28 = getelementptr inbounds %struct._zend_array, ptr %27, i32 0, i32 3
  %29 = load ptr, ptr %28, align 8
  %30 = load ptr, ptr %14, align 8
  %31 = getelementptr inbounds %struct._zend_array, ptr %30, i32 0, i32 4
  %32 = load i32, ptr %31, align 8
  %33 = zext i32 %32 to i64
  %34 = getelementptr inbounds %struct._zval_struct, ptr %29, i64 %33
  store ptr %34, ptr %17, align 8
  %35 = load ptr, ptr %14, align 8
  %36 = getelementptr inbounds %struct._zend_array, ptr %35, i32 0, i32 1
  %37 = load i32, ptr %36, align 8
  %38 = and i32 %37, 4
  %39 = icmp ne i32 %38, 0
  call void @llvm.assume(i1 %39)
  br label %40

40:                                               ; preds = %95, %21
  %41 = load ptr, ptr %16, align 8
  %42 = load ptr, ptr %17, align 8
  %43 = icmp ne ptr %41, %42
  br i1 %43, label %44, label %100

44:                                               ; preds = %40
  %45 = load ptr, ptr %16, align 8
  store ptr %45, ptr %8, align 8
  %46 = load ptr, ptr %8, align 8
  %47 = getelementptr inbounds %struct._zval_struct, ptr %46, i32 0, i32 1
  %48 = load i8, ptr %47, align 8
  %49 = zext i8 %48 to i32
  %50 = icmp eq i32 %49, 0
  %51 = xor i1 %50, true
  %52 = xor i1 %51, true
  %53 = zext i1 %52 to i32
  %54 = sext i32 %53 to i64
  %55 = icmp ne i64 %54, 0
  br i1 %55, label %56, label %57

56:                                               ; preds = %44
  br label %95

57:                                               ; preds = %44
  %58 = load ptr, ptr %16, align 8
  %59 = getelementptr inbounds %struct._zval_struct, ptr %58, i32 0, i32 0
  %60 = load ptr, ptr %59, align 8
  store ptr %60, ptr %13, align 8
  %61 = load ptr, ptr %13, align 8
  %62 = getelementptr inbounds %struct._zend_attribute, ptr %61, i32 0, i32 4
  %63 = load i32, ptr %62, align 8
  %64 = load i32, ptr %12, align 4
  %65 = icmp eq i32 %63, %64
  br i1 %65, label %66, label %94

66:                                               ; preds = %57
  %67 = load ptr, ptr %13, align 8
  %68 = getelementptr inbounds %struct._zend_attribute, ptr %67, i32 0, i32 1
  %69 = load ptr, ptr %68, align 8
  %70 = load ptr, ptr %11, align 8
  store ptr %69, ptr %6, align 8
  store ptr %70, ptr %7, align 8
  %71 = load ptr, ptr %6, align 8
  %72 = load ptr, ptr %7, align 8
  %73 = icmp eq ptr %71, %72
  br i1 %73, label %90, label %74

74:                                               ; preds = %66
  %75 = load ptr, ptr %6, align 8
  %76 = load ptr, ptr %7, align 8
  store ptr %75, ptr %4, align 8
  store ptr %76, ptr %5, align 8
  %77 = load ptr, ptr %4, align 8
  %78 = getelementptr inbounds %struct._zend_string, ptr %77, i32 0, i32 2
  %79 = load i64, ptr %78, align 8
  %80 = load ptr, ptr %5, align 8
  %81 = getelementptr inbounds %struct._zend_string, ptr %80, i32 0, i32 2
  %82 = load i64, ptr %81, align 8
  %83 = icmp eq i64 %79, %82
  br i1 %83, label %84, label %88

84:                                               ; preds = %74
  %85 = load ptr, ptr %4, align 8
  %86 = load ptr, ptr %5, align 8
  %87 = call zeroext i1 @zend_string_equal_val(ptr noundef %85, ptr noundef %86) #12
  br label %88

88:                                               ; preds = %84, %74
  %89 = phi i1 [ false, %74 ], [ %87, %84 ]
  br label %90

90:                                               ; preds = %88, %66
  %91 = phi i1 [ true, %66 ], [ %89, %88 ]
  br i1 %91, label %92, label %94

92:                                               ; preds = %90
  %93 = load ptr, ptr %13, align 8
  store ptr %93, ptr %9, align 8
  br label %103

94:                                               ; preds = %90, %57
  br label %95

95:                                               ; preds = %94, %56
  %96 = load ptr, ptr %16, align 8
  %97 = getelementptr inbounds %struct._zval_struct, ptr %96, i32 1
  store ptr %97, ptr %16, align 8
  %98 = load i64, ptr %15, align 8
  %99 = add i64 %98, 1
  store i64 %99, ptr %15, align 8
  br label %40

100:                                              ; preds = %40
  br label %101

101:                                              ; preds = %100
  br label %102

102:                                              ; preds = %101, %3
  store ptr null, ptr %9, align 8
  br label %103

103:                                              ; preds = %102, %92
  %104 = load ptr, ptr %9, align 8
  ret ptr %104
}

; Function Attrs: nounwind uwtable
define ptr @zend_get_parameter_attribute(ptr noundef %0, ptr noundef %1, i32 noundef %2) #0 {
  %4 = alloca ptr, align 8
  %5 = alloca ptr, align 8
  %6 = alloca i32, align 4
  store ptr %0, ptr %4, align 8
  store ptr %1, ptr %5, align 8
  store i32 %2, ptr %6, align 4
  %7 = load ptr, ptr %4, align 8
  %8 = load ptr, ptr %5, align 8
  %9 = load i32, ptr %6, align 4
  %10 = add i32 %9, 1
  %11 = call ptr @get_attribute(ptr noundef %7, ptr noundef %8, i32 noundef %10)
  ret ptr %11
}