; Function Attrs: nounwind uwtable
define ptr @zend_get_parameter_attribute(ptr noundef readonly %0, ptr noundef %1, i32 noundef %2) local_unnamed_addr #0 {
  %4 = add i32 %2, 1
  %.not.i = icmp eq ptr %0, null
  br i1 %.not.i, label %get_attribute.exit, label %5

5:                                                ; preds = %3
  %6 = getelementptr inbounds i8, ptr %0, i64 16
  %7 = load ptr, ptr %6, align 8
  %8 = getelementptr inbounds i8, ptr %0, i64 24
  %9 = load i32, ptr %8, align 8
  %10 = zext i32 %9 to i64
  %11 = getelementptr inbounds %struct._zval_struct, ptr %7, i64 %10
  %12 = getelementptr inbounds i8, ptr %0, i64 8
  %13 = load i32, ptr %12, align 8
  %14 = and i32 %13, 4
  %15 = icmp ne i32 %14, 0
  tail call void @llvm.assume(i1 %15)
  %.not3334.i = icmp eq i32 %9, 0
  br i1 %.not3334.i, label %get_attribute.exit, label %.lr.ph.i

.lr.ph.i:                                         ; preds = %5
  %16 = getelementptr inbounds i8, ptr %1, i64 16
  br label %17

17:                                               ; preds = %.critedge2.i, %.lr.ph.i
  %.02835.i = phi ptr [ %7, %.lr.ph.i ], [ %37, %.critedge2.i ]
  %18 = getelementptr inbounds i8, ptr %.02835.i, i64 8
  %19 = load i8, ptr %18, align 8
  %20 = icmp eq i8 %19, 0
  br i1 %20, label %.critedge2.i, label %21

21:                                               ; preds = %17
  %22 = load ptr, ptr %.02835.i, align 8
  %23 = getelementptr inbounds i8, ptr %22, i64 24
  %24 = load i32, ptr %23, align 8
  %25 = icmp eq i32 %24, %4
  br i1 %25, label %26, label %.critedge2.i

26:                                               ; preds = %21
  %27 = getelementptr inbounds i8, ptr %22, i64 8
  %28 = load ptr, ptr %27, align 8
  %29 = icmp eq ptr %28, %1
  br i1 %29, label %get_attribute.exit, label %30

30:                                               ; preds = %26
  %31 = getelementptr inbounds i8, ptr %28, i64 16
  %32 = load i64, ptr %31, align 8
  %33 = load i64, ptr %16, align 8
  %34 = icmp eq i64 %32, %33
  br i1 %34, label %35, label %.critedge2.i

35:                                               ; preds = %30
  %36 = tail call zeroext i1 @zend_string_equal_val(ptr noundef nonnull %28, ptr noundef nonnull %1) #16
  br i1 %36, label %get_attribute.exit, label %.critedge2.i

.critedge2.i:                                     ; preds = %35, %30, %21, %17
  %37 = getelementptr inbounds i8, ptr %.02835.i, i64 16
  %.not33.i = icmp eq ptr %37, %11
  br i1 %.not33.i, label %get_attribute.exit, label %17

get_attribute.exit:                               ; preds = %26, %35, %.critedge2.i, %3, %5
  %.0.i = phi ptr [ null, %3 ], [ null, %5 ], [ null, %.critedge2.i ], [ %22, %35 ], [ %22, %26 ]
  ret ptr %.0.i
}